target datalayout = "e-m:e-p270:32:32-p271:32:32-p272:64:64-i64:64-i128:128-f80:128-n8:16:32:64-S128"
target triple = "x86_64-unknown-linux-gnu"

@__const._ZN3zmq14plain_server_t16send_zap_requestERKNSt7__cxx1112basic_stringIcSt11char_traitsIcESaIcEEES8_.plain_mechanism_name = private unnamed_addr constant [6 x i8] c"PLAIN\00", align 1

; Function Attrs: mustprogress uwtable
define void @_ZN3zmq14plain_server_t16send_zap_requestERKNSt7__cxx1112basic_stringIcSt11char_traitsIcESaIcEEES8_(ptr noundef nonnull align 8 dereferenceable(1576) %this, ptr noundef nonnull align 8 dereferenceable(32) %username_, ptr noundef nonnull align 8 dereferenceable(32) %password_) #0 align 2 {
entry:
  %this.addr = alloca ptr, align 8
  %username_.addr = alloca ptr, align 8
  %password_.addr = alloca ptr, align 8
  %credentials = alloca [2 x ptr], align 16
  %credentials_sizes = alloca [2 x i64], align 16
  %plain_mechanism_name = alloca [6 x i8], align 1
  store ptr %this, ptr %this.addr, align 8
  store ptr %username_, ptr %username_.addr, align 8
  store ptr %password_, ptr %password_.addr, align 8
  %this1 = load ptr, ptr %this.addr, align 8
  %arrayinit.begin = getelementptr inbounds [2 x ptr], ptr %credentials, i64 0, i64 0
  %0 = load ptr, ptr %username_.addr, align 8
  %call = call noundef ptr @_ZNKSt7__cxx1112basic_stringIcSt11char_traitsIcESaIcEE5c_strEv(ptr noundef nonnull align 8 dereferenceable(32) %0) #11
  store ptr %call, ptr %arrayinit.begin, align 8
  %arrayinit.element = getelementptr inbounds ptr, ptr %arrayinit.begin, i64 1
  %1 = load ptr, ptr %password_.addr, align 8
  %call2 = call noundef ptr @_ZNKSt7__cxx1112basic_stringIcSt11char_traitsIcESaIcEE5c_strEv(ptr noundef nonnull align 8 dereferenceable(32) %1) #11
  store ptr %call2, ptr %arrayinit.element, align 8
  %arrayinit.begin3 = getelementptr inbounds [2 x i64], ptr %credentials_sizes, i64 0, i64 0
  %2 = load ptr, ptr %username_.addr, align 8
  %call4 = call noundef i64 @_ZNKSt7__cxx1112basic_stringIcSt11char_traitsIcESaIcEE4sizeEv(ptr noundef nonnull align 8 dereferenceable(32) %2) #11
  store i64 %call4, ptr %arrayinit.begin3, align 8
  %arrayinit.element5 = getelementptr inbounds i64, ptr %arrayinit.begin3, i64 1
  %3 = load ptr, ptr %password_.addr, align 8
  %call6 = call noundef i64 @_ZNKSt7__cxx1112basic_stringIcSt11char_traitsIcESaIcEE4sizeEv(ptr noundef nonnull align 8 dereferenceable(32) %3) #11
  store i64 %call6, ptr %arrayinit.element5, align 8
  call void @llvm.memcpy.p0.p0.i64(ptr align 1 %plain_mechanism_name, ptr align 1 @__const._ZN3zmq14plain_server_t16send_zap_requestERKNSt7__cxx1112basic_stringIcSt11char_traitsIcESaIcEEES8_.plain_mechanism_name, i64 6, i1 false)
  %arraydecay = getelementptr inbounds [6 x i8], ptr %plain_mechanism_name, i64 0, i64 0
  %arraydecay7 = getelementptr inbounds [2 x ptr], ptr %credentials, i64 0, i64 0
  %arraydecay8 = getelementptr inbounds [2 x i64], ptr %credentials_sizes, i64 0, i64 0
  call void @_ZN3zmq12zap_client_t16send_zap_requestEPKcmPPKhPmm(ptr noundef nonnull align 8 dereferenceable(72) %this1, ptr noundef %arraydecay, i64 noundef 5, ptr noundef %arraydecay7, ptr noundef %arraydecay8, i64 noundef 2)
  ret void
}