; Function Attrs: mustprogress uwtable
define void @_ZN3zmq14plain_server_t16send_zap_requestERKNSt7__cxx1112basic_stringIcSt11char_traitsIcESaIcEEES8_(ptr noundef nonnull align 8 dereferenceable(1576) %this, ptr noundef nonnull align 8 dereferenceable(32) %username_, ptr noundef nonnull align 8 dereferenceable(32) %password_) local_unnamed_addr #0 align 2 {
entry:
  %credentials = alloca [2 x ptr], align 16
  %credentials_sizes = alloca [2 x i64], align 16
  %plain_mechanism_name = alloca [6 x i8], align 1
  %call = tail call noundef ptr @_ZNKSt7__cxx1112basic_stringIcSt11char_traitsIcESaIcEE5c_strEv(ptr noundef nonnull align 8 dereferenceable(32) %username_) #13
  store ptr %call, ptr %credentials, align 16
  %arrayinit.element = getelementptr inbounds i8, ptr %credentials, i64 8
  %call2 = tail call noundef ptr @_ZNKSt7__cxx1112basic_stringIcSt11char_traitsIcESaIcEE5c_strEv(ptr noundef nonnull align 8 dereferenceable(32) %password_) #13
  store ptr %call2, ptr %arrayinit.element, align 8
  %call4 = tail call noundef i64 @_ZNKSt7__cxx1112basic_stringIcSt11char_traitsIcESaIcEE4sizeEv(ptr noundef nonnull align 8 dereferenceable(32) %username_) #13
  store i64 %call4, ptr %credentials_sizes, align 16
  %arrayinit.element5 = getelementptr inbounds i8, ptr %credentials_sizes, i64 8
  %call6 = tail call noundef i64 @_ZNKSt7__cxx1112basic_stringIcSt11char_traitsIcESaIcEE4sizeEv(ptr noundef nonnull align 8 dereferenceable(32) %password_) #13
  store i64 %call6, ptr %arrayinit.element5, align 8
  call void @llvm.memcpy.p0.p0.i64(ptr noundef nonnull align 1 dereferenceable(6) %plain_mechanism_name, ptr noundef nonnull align 1 dereferenceable(6) @__const._ZN3zmq14plain_server_t16send_zap_requestERKNSt7__cxx1112basic_stringIcSt11char_traitsIcESaIcEEES8_.plain_mechanism_name, i64 6, i1 false)
  call void @_ZN3zmq12zap_client_t16send_zap_requestEPKcmPPKhPmm(ptr noundef nonnull align 8 dereferenceable(72) %this, ptr noundef nonnull %plain_mechanism_name, i64 noundef 5, ptr noundef nonnull %credentials, ptr noundef nonnull %credentials_sizes, i64 noundef 2)
  ret void
}